; Function Attrs: mustprogress uwtable
define hidden noundef zeroext i1 @_ZN8intblast6solver14unit_propagateEv(ptr noundef nonnull align 8 dereferenceable(420) %0) unnamed_addr #3 align 2 {
  %2 = tail call noundef zeroext i1 @_ZN8intblast6solver16add_bound_axiomsEv(ptr noundef nonnull align 8 dereferenceable(420) %0)
  br i1 %2, label %5, label %3

3:                                                ; preds = %1
  %4 = tail call noundef zeroext i1 @_ZN8intblast6solver20add_predicate_axiomsEv(ptr noundef nonnull align 8 dereferenceable(420) %0)
  br label %5

5:                                                ; preds = %3, %1
  %6 = phi i1 [ true, %1 ], [ %4, %3 ]
  ret i1 %6
}